; Function Attrs: mustprogress uwtable
define void @_ZN6icu_759UVector3215insertElementAtEiiR10UErrorCode(ptr nocapture noundef nonnull align 8 dereferenceable(32) %this, i32 noundef %elem, i32 noundef %index, ptr nocapture noundef nonnull align 4 dereferenceable(4) %status) local_unnamed_addr #1 align 2 {
entry:
  %cmp = icmp sgt i32 %index, -1
  br i1 %cmp, label %land.lhs.true, label %if.end

land.lhs.true:                                    ; preds = %entry
  %count = getelementptr inbounds i8, ptr %this, i64 8
  %0 = load i32, ptr %count, align 8
  %cmp2.not = icmp slt i32 %0, %index
  br i1 %cmp2.not, label %if.end, label %land.lhs.true3

land.lhs.true3:                                   ; preds = %land.lhs.true
  %add = add nuw nsw i32 %0, 1
  %capacity.i = getelementptr inbounds i8, ptr %this, i64 12
  %1 = load i32, ptr %capacity.i, align 4
  %cmp2.not.i.not = icmp sgt i32 %1, %0
  br i1 %cmp2.not.i.not, label %if.then, label %if.else.i

if.else.i:                                        ; preds = %land.lhs.true3
  %2 = load i32, ptr %status, align 4
  %cmp.i.i.i = icmp slt i32 %2, 1
  br i1 %cmp.i.i.i, label %if.end6.i.i, label %if.end

if.end6.i.i:                                      ; preds = %if.else.i
  %maxCapacity.i.i = getelementptr inbounds i8, ptr %this, i64 16
  %3 = load i32, ptr %maxCapacity.i.i, align 8
  %cmp7.i.i = icmp sgt i32 %3, 0
  %cmp9.i.i = icmp sle i32 %3, %0
  %or.cond.i.i = and i1 %cmp7.i.i, %cmp9.i.i
  br i1 %or.cond.i.i, label %if.then10.i.i, label %if.end11.i.i

if.then10.i.i:                                    ; preds = %if.end6.i.i
  store i32 15, ptr %status, align 4
  br label %if.end

if.end11.i.i:                                     ; preds = %if.end6.i.i
  %cmp13.i.i = icmp sgt i32 %1, 1073741823
  br i1 %cmp13.i.i, label %if.then14.i.i, label %if.end15.i.i

if.then14.i.i:                                    ; preds = %if.end11.i.i
  store i32 1, ptr %status, align 4
  br label %if.end

if.end15.i.i:                                     ; preds = %if.end11.i.i
  %mul.i.i = shl nsw i32 %1, 1
  %spec.select.i.i = tail call i32 @llvm.smax.i32(i32 %mul.i.i, i32 %add)
  %4 = tail call i32 @llvm.smin.i32(i32 %spec.select.i.i, i32 %3)
  %newCap.1.i.i = select i1 %cmp7.i.i, i32 %4, i32 %spec.select.i.i
  %cmp28.i.i = icmp sgt i32 %newCap.1.i.i, 536870911
  br i1 %cmp28.i.i, label %if.then29.i.i, label %if.end30.i.i

if.then29.i.i:                                    ; preds = %if.end15.i.i
  store i32 1, ptr %status, align 4
  br label %if.end

if.end30.i.i:                                     ; preds = %if.end15.i.i
  %elements.i.i = getelementptr inbounds i8, ptr %this, i64 24
  %5 = load ptr, ptr %elements.i.i, align 8
  %conv.i.i = zext nneg i32 %newCap.1.i.i to i64
  %mul31.i.i = shl nuw nsw i64 %conv.i.i, 2
  %call32.i.i = tail call ptr @uprv_realloc_75(ptr noundef %5, i64 noundef %mul31.i.i) #16
  %cmp33.i.i = icmp eq ptr %call32.i.i, null
  br i1 %cmp33.i.i, label %if.then34.i.i, label %if.end35.i.i

if.then34.i.i:                                    ; preds = %if.end30.i.i
  store i32 7, ptr %status, align 4
  br label %if.end

if.end35.i.i:                                     ; preds = %if.end30.i.i
  store ptr %call32.i.i, ptr %elements.i.i, align 8
  store i32 %newCap.1.i.i, ptr %capacity.i, align 4
  %.pre = load i32, ptr %count, align 8
  br label %if.then

if.then:                                          ; preds = %if.end35.i.i, %land.lhs.true3
  %6 = phi i32 [ %.pre, %if.end35.i.i ], [ %0, %land.lhs.true3 ]
  %cmp69 = icmp sgt i32 %6, %index
  br i1 %cmp69, label %for.body.lr.ph, label %for.end

for.body.lr.ph:                                   ; preds = %if.then
  %elements = getelementptr inbounds i8, ptr %this, i64 24
  %7 = zext nneg i32 %6 to i64
  %8 = zext nneg i32 %index to i64
  br label %for.body

for.body:                                         ; preds = %for.body.lr.ph, %for.body
  %indvars.iv = phi i64 [ %7, %for.body.lr.ph ], [ %indvars.iv.next, %for.body ]
  %9 = load ptr, ptr %elements, align 8
  %10 = getelementptr i32, ptr %9, i64 %indvars.iv
  %arrayidx = getelementptr i8, ptr %10, i64 -4
  %11 = load i32, ptr %arrayidx, align 4
  store i32 %11, ptr %10, align 4
  %indvars.iv.next = add nsw i64 %indvars.iv, -1
  %cmp6 = icmp sgt i64 %indvars.iv.next, %8
  br i1 %cmp6, label %for.body, label %for.end, !llvm.loop !8

for.end:                                          ; preds = %for.body, %if.then
  %elements10 = getelementptr inbounds i8, ptr %this, i64 24
  %12 = load ptr, ptr %elements10, align 8
  %idxprom11 = zext nneg i32 %index to i64
  %arrayidx12 = getelementptr inbounds i32, ptr %12, i64 %idxprom11
  store i32 %elem, ptr %arrayidx12, align 4
  %13 = load i32, ptr %count, align 8
  %inc = add nsw i32 %13, 1
  store i32 %inc, ptr %count, align 8
  br label %if.end

if.end:                                           ; preds = %if.else.i, %if.then34.i.i, %if.then29.i.i, %if.then14.i.i, %if.then10.i.i, %for.end, %land.lhs.true, %entry
  ret void
}